target datalayout = "e-m:e-p270:32:32-p271:32:32-p272:64:64-i64:64-i128:128-f80:128-n8:16:32:64-S128"
target triple = "x86_64-pc-linux-gnu"

; Function Attrs: nounwind uwtable
define hidden void @VP8LConvertBGRAToRGBA4444_C(ptr noalias noundef %0, i32 noundef %1, ptr noalias noundef %2) #0 {
  %4 = alloca ptr, align 8
  %5 = alloca i32, align 4
  %6 = alloca ptr, align 8
  %7 = alloca ptr, align 8
  %8 = alloca i32, align 4
  %9 = alloca i8, align 1
  %10 = alloca i8, align 1
  store ptr %0, ptr %4, align 8, !tbaa !3
  store i32 %1, ptr %5, align 4, !tbaa !8
  store ptr %2, ptr %6, align 8, !tbaa !21
  call void @llvm.lifetime.start.p0(i64 8, ptr %7) #8
  %11 = load ptr, ptr %4, align 8, !tbaa !3
  %12 = load i32, ptr %5, align 4, !tbaa !8
  %13 = sext i32 %12 to i64
  %14 = getelementptr inbounds i32, ptr %11, i64 %13
  store ptr %14, ptr %7, align 8, !tbaa !3
  br label %15

15:                                               ; preds = %19, %3
  %16 = load ptr, ptr %4, align 8, !tbaa !3
  %17 = load ptr, ptr %7, align 8, !tbaa !3
  %18 = icmp ult ptr %16, %17
  br i1 %18, label %19, label %45

19:                                               ; preds = %15
  call void @llvm.lifetime.start.p0(i64 4, ptr %8) #8
  %20 = load ptr, ptr %4, align 8, !tbaa !3
  %21 = getelementptr inbounds nuw i32, ptr %20, i32 1
  store ptr %21, ptr %4, align 8, !tbaa !3
  %22 = load i32, ptr %20, align 4, !tbaa !8
  store i32 %22, ptr %8, align 4, !tbaa !8
  call void @llvm.lifetime.start.p0(i64 1, ptr %9) #8
  %23 = load i32, ptr %8, align 4, !tbaa !8
  %24 = lshr i32 %23, 16
  %25 = and i32 %24, 240
  %26 = load i32, ptr %8, align 4, !tbaa !8
  %27 = lshr i32 %26, 12
  %28 = and i32 %27, 15
  %29 = or i32 %25, %28
  %30 = trunc i32 %29 to i8
  store i8 %30, ptr %9, align 1, !tbaa !13
  call void @llvm.lifetime.start.p0(i64 1, ptr %10) #8
  %31 = load i32, ptr %8, align 4, !tbaa !8
  %32 = lshr i32 %31, 0
  %33 = and i32 %32, 240
  %34 = load i32, ptr %8, align 4, !tbaa !8
  %35 = lshr i32 %34, 28
  %36 = and i32 %35, 15
  %37 = or i32 %33, %36
  %38 = trunc i32 %37 to i8
  store i8 %38, ptr %10, align 1, !tbaa !13
  %39 = load i8, ptr %9, align 1, !tbaa !13
  %40 = load ptr, ptr %6, align 8, !tbaa !21
  %41 = getelementptr inbounds nuw i8, ptr %40, i32 1
  store ptr %41, ptr %6, align 8, !tbaa !21
  store i8 %39, ptr %40, align 1, !tbaa !13
  %42 = load i8, ptr %10, align 1, !tbaa !13
  %43 = load ptr, ptr %6, align 8, !tbaa !21
  %44 = getelementptr inbounds nuw i8, ptr %43, i32 1
  store ptr %44, ptr %6, align 8, !tbaa !21
  store i8 %42, ptr %43, align 1, !tbaa !13
  call void @llvm.lifetime.end.p0(i64 1, ptr %10) #8
  call void @llvm.lifetime.end.p0(i64 1, ptr %9) #8
  call void @llvm.lifetime.end.p0(i64 4, ptr %8) #8
  br label %15, !llvm.loop !39

45:                                               ; preds = %15
  call void @llvm.lifetime.end.p0(i64 8, ptr %7) #8
  ret void
}